	.file	"example.c"
	.text
.Ltext0:
	.file 0 "/home/mahaloz/github/decbench/tests/example_project" "example.c"
	.section	.rodata.str1.1,"aMS",@progbits,1
.LC0:
	.string	"next_job"
	.text
	.p2align 4
	.globl	next_job
	.type	next_job, @function
next_job:
.LFB13:
	.file 1 "example.c"
	.loc 1 14 20 view -0
	.cfi_startproc
	endbr64
	.loc 1 15 5 view .LVU1
	.loc 1 14 20 is_stmt 0 view .LVU2
	subq	$8, %rsp
	.cfi_def_cfa_offset 16
	.loc 1 15 5 view .LVU3
	leaq	.LC0(%rip), %rdi
	call	puts@PLT
.LVL0:
	.loc 1 16 5 is_stmt 1 view .LVU4
	.loc 1 17 1 is_stmt 0 view .LVU5
	movl	$1, %eax
	addq	$8, %rsp
	.cfi_def_cfa_offset 8
	ret
	.cfi_endproc
.LFE13:
	.size	next_job, .-next_job
	.section	.rodata.str1.1
.LC1:
	.string	"refresh_jobs"
	.text
	.p2align 4
	.globl	refresh_jobs
	.type	refresh_jobs, @function
refresh_jobs:
.LFB14:
	.loc 1 19 24 is_stmt 1 view -0
	.cfi_startproc
	endbr64
	.loc 1 20 5 view .LVU7
	.loc 1 19 24 is_stmt 0 view .LVU8
	subq	$8, %rsp
	.cfi_def_cfa_offset 16
	.loc 1 20 5 view .LVU9
	leaq	.LC1(%rip), %rdi
	call	puts@PLT
.LVL1:
	.loc 1 21 5 is_stmt 1 view .LVU10
	.loc 1 22 1 is_stmt 0 view .LVU11
	movl	$2, %eax
	addq	$8, %rsp
	.cfi_def_cfa_offset 8
	ret
	.cfi_endproc
.LFE14:
	.size	refresh_jobs, .-refresh_jobs
	.section	.rodata.str1.1
.LC2:
	.string	"fast_unlock"
	.text
	.p2align 4
	.globl	fast_unlock
	.type	fast_unlock, @function
fast_unlock:
.LFB15:
	.loc 1 24 23 is_stmt 1 view -0
	.cfi_startproc
	endbr64
	.loc 1 25 5 view .LVU13
	.loc 1 24 23 is_stmt 0 view .LVU14
	subq	$8, %rsp
	.cfi_def_cfa_offset 16
	.loc 1 25 5 view .LVU15
	leaq	.LC2(%rip), %rdi
	call	puts@PLT
.LVL2:
	.loc 1 26 5 is_stmt 1 view .LVU16
	.loc 1 27 1 is_stmt 0 view .LVU17
	movl	$4, %eax
	addq	$8, %rsp
	.cfi_def_cfa_offset 8
	ret
	.cfi_endproc
.LFE15:
	.size	fast_unlock, .-fast_unlock
	.section	.rodata.str1.1
.LC3:
	.string	"checking..."
	.text
	.p2align 4
	.globl	complete_job
	.type	complete_job, @function
complete_job:
.LFB16:
	.loc 1 29 24 is_stmt 1 view -0
	.cfi_startproc
	endbr64
	.loc 1 30 5 view .LVU19
	.loc 1 29 24 is_stmt 0 view .LVU20
	subq	$8, %rsp
	.cfi_def_cfa_offset 16
	.loc 1 30 5 view .LVU21
	leaq	.LC3(%rip), %rdi
	call	puts@PLT
.LVL3:
	.loc 1 31 5 is_stmt 1 view .LVU22
	.loc 1 32 1 is_stmt 0 view .LVU23
	xorl	%eax, %eax
	addq	$8, %rsp
	.cfi_def_cfa_offset 8
	ret
	.cfi_endproc
.LFE16:
	.size	complete_job, .-complete_job
	.section	.rodata.str1.1
.LC4:
	.string	"log_workers"
	.text
	.p2align 4
	.globl	log_workers
	.type	log_workers, @function
log_workers:
.LFB17:
	.loc 1 34 24 is_stmt 1 view -0
	.cfi_startproc
	endbr64
	.loc 1 35 5 view .LVU25
	leaq	.LC4(%rip), %rdi
	jmp	puts@PLT
.LVL4:
	.cfi_endproc
.LFE17:
	.size	log_workers, .-log_workers
	.section	.rodata.str1.1
.LC5:
	.string	"job_status"
	.text
	.p2align 4
	.globl	job_status
	.type	job_status, @function
job_status:
.LVL5:
.LFB18:
	.loc 1 38 27 view -0
	.cfi_startproc
	.loc 1 38 27 is_stmt 0 view .LVU27
	endbr64
	.loc 1 39 5 is_stmt 1 view .LVU28
	.loc 1 38 27 is_stmt 0 view .LVU29
	pushq	%rbx
	.cfi_def_cfa_offset 16
	.cfi_offset 3, -16
	.loc 1 38 27 view .LVU30
	movl	%edi, %ebx
	.loc 1 39 5 view .LVU31
	leaq	.LC5(%rip), %rdi
.LVL6:
	.loc 1 39 5 view .LVU32
	call	puts@PLT
.LVL7:
	.loc 1 40 5 is_stmt 1 view .LVU33
	.loc 1 41 1 is_stmt 0 view .LVU34
	movl	%ebx, %eax
	popq	%rbx
	.cfi_def_cfa_offset 8
.LVL8:
	.loc 1 41 1 view .LVU35
	ret
	.cfi_endproc
.LFE18:
	.size	job_status, .-job_status
	.p2align 4
	.globl	schedule_job
	.type	schedule_job, @function
schedule_job:
.LVL9:
.LFB19:
	.loc 1 45 1 is_stmt 1 view -0
	.cfi_startproc
	.loc 1 45 1 is_stmt 0 view .LVU37
	endbr64
	.loc 1 46 5 is_stmt 1 view .LVU38
	.loc 1 45 1 is_stmt 0 view .LVU39
	pushq	%rbp
	.cfi_def_cfa_offset 16
	.cfi_offset 6, -16
	pushq	%rbx
	.cfi_def_cfa_offset 24
	.cfi_offset 3, -24
	movl	%esi, %ebx
	subq	$8, %rsp
	.cfi_def_cfa_offset 32
	.loc 1 46 8 view .LVU40
	testl	%edi, %edi
	je	.L14
	testl	%esi, %esi
	je	.L14
	movl	%edx, %ebp
	.loc 1 47 9 is_stmt 1 view .LVU41
	call	complete_job
.LVL10:
	.loc 1 48 9 view .LVU42
	.loc 1 48 12 is_stmt 0 view .LVU43
	cmpl	%ebp, EARLY_EXIT(%rip)
	je	.L16
	.loc 1 51 9 is_stmt 1 view .LVU44
	call	next_job
.LVL11:
	.loc 1 54 5 view .LVU45
	call	refresh_jobs
.LVL12:
	.loc 1 55 5 view .LVU46
.L17:
	.loc 1 56 9 view .LVU47
	call	fast_unlock
.LVL13:
.L16:
	.loc 1 59 5 view .LVU48
	call	complete_job
.LVL14:
	.loc 1 60 5 view .LVU49
	call	log_workers
.LVL15:
	.loc 1 61 5 view .LVU50
	.loc 1 62 1 is_stmt 0 view .LVU51
	addq	$8, %rsp
	.cfi_remember_state
	.cfi_def_cfa_offset 24
	.loc 1 61 12 view .LVU52
	movl	%ebx, %edi
	.loc 1 62 1 view .LVU53
	popq	%rbx
	.cfi_def_cfa_offset 16
.LVL16:
	.loc 1 62 1 view .LVU54
	popq	%rbp
	.cfi_def_cfa_offset 8
	.loc 1 61 12 view .LVU55
	jmp	job_status
.LVL17:
	.p2align 4,,10
	.p2align 3
.L14:
	.cfi_restore_state
	.loc 1 54 5 is_stmt 1 view .LVU56
	call	refresh_jobs
.LVL18:
	.loc 1 55 5 view .LVU57
	.loc 1 55 8 is_stmt 0 view .LVU58
	testl	%ebx, %ebx
	je	.L16
	jmp	.L17
	.cfi_endproc
.LFE19:
	.size	schedule_job, .-schedule_job
	.p2align 4
	.globl	count_to_n
	.type	count_to_n, @function
count_to_n:
.LVL19:
.LFB20:
	.loc 1 65 23 is_stmt 1 view -0
	.cfi_startproc
	.loc 1 65 23 is_stmt 0 view .LVU60
	endbr64
	.loc 1 66 5 is_stmt 1 view .LVU61
.LVL20:
	.loc 1 67 5 view .LVU62
.LBB2:
	.loc 1 67 10 view .LVU63
	.loc 1 67 23 discriminator 1 view .LVU64
	testl	%edi, %edi
	jle	.L32
	.loc 1 67 14 is_stmt 0 view .LVU65
	xorl	%eax, %eax
.LBE2:
	.loc 1 66 9 view .LVU66
	xorl	%edx, %edx
	testb	$1, %dil
	je	.L31
.LVL21:
.LBB3:
	.loc 1 68 9 is_stmt 1 view .LVU67
	.loc 1 67 29 discriminator 3 view .LVU68
	movl	$1, %eax
.LVL22:
	.loc 1 67 23 discriminator 1 view .LVU69
	cmpl	$1, %edi
	je	.L29
.LVL23:
	.p2align 4,,10
	.p2align 3
.L31:
	.loc 1 68 9 view .LVU70
	.loc 1 67 29 discriminator 3 view .LVU71
	.loc 1 67 23 discriminator 1 view .LVU72
	.loc 1 68 9 view .LVU73
	.loc 1 68 13 is_stmt 0 view .LVU74
	leal	1(%rdx,%rax,2), %edx
.LVL24:
	.loc 1 67 29 is_stmt 1 discriminator 3 view .LVU75
	addl	$2, %eax
.LVL25:
	.loc 1 67 23 discriminator 1 view .LVU76
	cmpl	%eax, %edi
	jne	.L31
.L29:
	.loc 1 67 23 is_stmt 0 discriminator 1 view .LVU77
.LBE3:
	.loc 1 71 1 view .LVU78
	movl	%edx, %eax
.LVL26:
	.loc 1 71 1 view .LVU79
	ret
.LVL27:
	.p2align 4,,10
	.p2align 3
.L32:
	.loc 1 66 9 view .LVU80
	xorl	%edx, %edx
	.loc 1 70 5 is_stmt 1 view .LVU81
	.loc 1 71 1 is_stmt 0 view .LVU82
	movl	%edx, %eax
	ret
	.cfi_endproc
.LFE20:
	.size	count_to_n, .-count_to_n
	.p2align 4
	.globl	classify_number
	.type	classify_number, @function
classify_number:
.LVL28:
.LFB21:
	.loc 1 74 28 is_stmt 1 view -0
	.cfi_startproc
	.loc 1 74 28 is_stmt 0 view .LVU84
	endbr64
	.loc 1 75 5 is_stmt 1 view .LVU85
	.loc 1 75 8 is_stmt 0 view .LVU86
	testl	%edi, %edi
	js	.L41
	.loc 1 77 12 is_stmt 1 view .LVU87
	.loc 1 78 16 is_stmt 0 view .LVU88
	movl	$0, %eax
	.loc 1 77 15 view .LVU89
	je	.L39
	.loc 1 79 12 is_stmt 1 view .LVU90
	.loc 1 80 16 is_stmt 0 view .LVU91
	movl	$1, %eax
	.loc 1 79 15 view .LVU92
	cmpl	$9, %edi
	jle	.L39
	.loc 1 81 12 is_stmt 1 view .LVU93
	.loc 1 82 16 is_stmt 0 view .LVU94
	xorl	%eax, %eax
	cmpl	$99, %edi
	setg	%al
	addl	$2, %eax
	ret
.L41:
	.loc 1 76 16 view .LVU95
	movl	$-1, %eax
.L39:
	.loc 1 86 1 view .LVU96
	ret
	.cfi_endproc
.LFE21:
	.size	classify_number, .-classify_number
	.section	.text.startup,"ax",@progbits
	.p2align 4
	.globl	main
	.type	main, @function
main:
.LVL29:
.LFB22:
	.loc 1 89 1 is_stmt 1 view -0
	.cfi_startproc
	.loc 1 89 1 is_stmt 0 view .LVU98
	endbr64
	.loc 1 90 5 is_stmt 1 view .LVU99
	.loc 1 90 8 is_stmt 0 view .LVU100
	cmpl	$3, %edi
	jg	.L48
	.loc 1 93 1 view .LVU101
	movl	$1, %eax
	ret
.L48:
	.loc 1 92 5 is_stmt 1 view .LVU102
	.loc 1 92 56 is_stmt 0 view .LVU103
	movq	24(%rsi), %rax
	.loc 1 92 32 view .LVU104
	movq	8(%rsi), %rcx
	.loc 1 92 12 view .LVU105
	movsbl	(%rax), %edx
	.loc 1 92 44 view .LVU106
	movq	16(%rsi), %rax
	.loc 1 92 12 view .LVU107
	movsbl	(%rcx), %edi
.LVL30:
	.loc 1 92 12 view .LVU108
	movsbl	(%rax), %eax
	movl	%eax, %esi
.LVL31:
	.loc 1 92 12 view .LVU109
	jmp	schedule_job
.LVL32:
	.cfi_endproc
.LFE22:
	.size	main, .-main
	.globl	EARLY_EXIT
	.data
	.align 4
	.type	EARLY_EXIT, @object
	.size	EARLY_EXIT, 4
EARLY_EXIT:
	.long	4
	.globl	EXTRA_RUN
	.align 4
	.type	EXTRA_RUN, @object
	.size	EXTRA_RUN, 4
EXTRA_RUN:
	.long	3
	.text
.Letext0:
	.file 2 "/usr/include/stdio.h"
	.section	.note.GNU-stack,"",@progbits
	.section	.note.gnu.property,"a"
	.align 8
	.long	1f - 0f
	.long	4f - 1f
	.long	5
0:
	.string	"GNU"
1:
	.align 8
	.long	0xc0000002
	.long	3f - 2f
2:
	.long	0x3
3:
	.align 8
4:
